; Function Attrs: mustprogress uwtable
define void @_ZNK19OpenColorIO_v2_4dev12CPUProcessor4Impl8applyRGBEPf(ptr nocapture noundef nonnull readonly align 8 dereferenceable(144) %this, ptr nocapture noundef %pixel) local_unnamed_addr #3 align 2 {
entry:
  %v = alloca [4 x float], align 16
  %0 = load <2 x float>, ptr %pixel, align 4
  store <2 x float> %0, ptr %v, align 16
  %arrayinit.element3 = getelementptr inbounds i8, ptr %v, i64 8
  %arrayidx4 = getelementptr inbounds i8, ptr %pixel, i64 8
  %1 = load float, ptr %arrayidx4, align 4
  store float %1, ptr %arrayinit.element3, align 8
  %arrayinit.element5 = getelementptr inbounds i8, ptr %v, i64 12
  store float 0.000000e+00, ptr %arrayinit.element5, align 4
  %2 = load ptr, ptr %this, align 8
  %vtable = load ptr, ptr %2, align 8
  %vfn = getelementptr inbounds i8, ptr %vtable, i64 16
  %3 = load ptr, ptr %vfn, align 8
  call void %3(ptr noundef nonnull align 8 dereferenceable(8) %2, ptr noundef nonnull %v, ptr noundef nonnull %v, i64 noundef 1)
  %m_cpuOps = getelementptr inbounds i8, ptr %this, i64 16
  %_M_finish.i = getelementptr inbounds i8, ptr %this, i64 24
  %4 = load ptr, ptr %_M_finish.i, align 8
  %5 = load ptr, ptr %m_cpuOps, align 8
  %cmp8.not = icmp eq ptr %4, %5
  br i1 %cmp8.not, label %for.end, label %for.body.preheader

for.body.preheader:                               ; preds = %entry
  %sub.ptr.lhs.cast.i = ptrtoint ptr %4 to i64
  %sub.ptr.rhs.cast.i = ptrtoint ptr %5 to i64
  %sub.ptr.sub.i = sub i64 %sub.ptr.lhs.cast.i, %sub.ptr.rhs.cast.i
  %sub.ptr.div.i = ashr exact i64 %sub.ptr.sub.i, 4
  %umax = call i64 @llvm.umax.i64(i64 %sub.ptr.div.i, i64 1)
  br label %for.body

for.body:                                         ; preds = %for.body.preheader, %for.body
  %i.09 = phi i64 [ %inc, %for.body ], [ 0, %for.body.preheader ]
  %6 = load ptr, ptr %m_cpuOps, align 8
  %add.ptr.i = getelementptr inbounds %"class.std::shared_ptr", ptr %6, i64 %i.09
  %7 = load ptr, ptr %add.ptr.i, align 8
  %vtable13 = load ptr, ptr %7, align 8
  %vfn14 = getelementptr inbounds i8, ptr %vtable13, i64 16
  %8 = load ptr, ptr %vfn14, align 8
  call void %8(ptr noundef nonnull align 8 dereferenceable(8) %7, ptr noundef nonnull %v, ptr noundef nonnull %v, i64 noundef 1)
  %inc = add nuw i64 %i.09, 1
  %exitcond.not = icmp eq i64 %inc, %umax
  br i1 %exitcond.not, label %for.end, label %for.body, !llvm.loop !141

for.end:                                          ; preds = %for.body, %entry
  %m_outBitDepthOp = getelementptr inbounds i8, ptr %this, i64 40
  %9 = load ptr, ptr %m_outBitDepthOp, align 8
  %vtable18 = load ptr, ptr %9, align 8
  %vfn19 = getelementptr inbounds i8, ptr %vtable18, i64 16
  %10 = load ptr, ptr %vfn19, align 8
  call void %10(ptr noundef nonnull align 8 dereferenceable(8) %9, ptr noundef nonnull %v, ptr noundef nonnull %v, i64 noundef 1)
  %11 = load <2 x float>, ptr %v, align 16
  store <2 x float> %11, ptr %pixel, align 4
  %12 = load float, ptr %arrayinit.element3, align 8
  store float %12, ptr %arrayidx4, align 4
  ret void
}